; Function Attrs: mustprogress nofree norecurse nosync nounwind willreturn memory(write, argmem: readwrite, inaccessiblemem: none) uwtable
define hidden noundef signext i8 @nfaExecTamarama_queueInitState(ptr noundef readonly captures(none) %0, ptr noundef readonly captures(none) %1) local_unnamed_addr #3 {
  %3 = getelementptr inbounds nuw i8, ptr %0, i64 64
  %4 = getelementptr inbounds nuw i8, ptr %1, i64 24
  %5 = load ptr, ptr %4, align 8
  %6 = load i32, ptr %3, align 32
  %7 = getelementptr i8, ptr %0, i64 68
  %.val = load i8, ptr %7, align 4
  switch i8 %.val, label %storeActiveIdx.exit [
    i8 4, label %8
    i8 3, label %9
    i8 2, label %14
    i8 1, label %16
  ]

8:                                                ; preds = %2
  store i32 %6, ptr %5, align 1
  br label %storeActiveIdx.exit

9:                                                ; preds = %2
  %10 = trunc i32 %6 to i16
  store i16 %10, ptr %5, align 1
  %11 = lshr i32 %6, 16
  %12 = trunc i32 %11 to i8
  %13 = getelementptr inbounds nuw i8, ptr %5, i64 2
  store i8 %12, ptr %13, align 1
  br label %storeActiveIdx.exit

14:                                               ; preds = %2
  %15 = trunc i32 %6 to i16
  store i16 %15, ptr %5, align 1
  br label %storeActiveIdx.exit

16:                                               ; preds = %2
  %17 = trunc i32 %6 to i8
  store i8 %17, ptr %5, align 1
  br label %storeActiveIdx.exit

storeActiveIdx.exit:                              ; preds = %2, %8, %9, %14, %16
  ret i8 0
}